target datalayout = "e-m:e-p270:32:32-p271:32:32-p272:64:64-i64:64-i128:128-f80:128-n8:16:32:64-S128"
target triple = "x86_64-pc-linux-gnu"

%struct._address = type { i32, i32, ptr, ptr }
%struct.profile = type { i16, i8, %struct._address, i32, i32, ptr, ptr, ptr, ptr, ptr, ptr, ptr, i32, ptr, ptr, ptr }
%struct.object = type { %struct.od_entry, ptr }
%struct.od_entry = type { i16, i16, [64 x i8], ptr, i64 }

; Function Attrs: nounwind uwtable
define hidden ptr @epl_profile_object_add(ptr noundef %0, i16 noundef zeroext %1) #0 {
  %3 = alloca ptr, align 8
  %4 = alloca i16, align 2
  %5 = alloca ptr, align 8
  store ptr %0, ptr %3, align 8
  store i16 %1, ptr %4, align 2
  %6 = load ptr, ptr %3, align 8
  %7 = getelementptr inbounds %struct.profile, ptr %6, i32 0, i32 6
  %8 = load ptr, ptr %7, align 8
  %9 = call noalias ptr @wmem_alloc0(ptr noundef %8, i64 noundef 96)
  store ptr %9, ptr %5, align 8
  %10 = load i16, ptr %4, align 2
  %11 = load ptr, ptr %5, align 8
  %12 = getelementptr inbounds %struct.object, ptr %11, i32 0, i32 0
  %13 = getelementptr inbounds %struct.od_entry, ptr %12, i32 0, i32 0
  store i16 %10, ptr %13, align 8
  %14 = load ptr, ptr %3, align 8
  %15 = getelementptr inbounds %struct.profile, ptr %14, i32 0, i32 5
  %16 = load ptr, ptr %15, align 8
  %17 = load ptr, ptr %5, align 8
  %18 = getelementptr inbounds %struct.object, ptr %17, i32 0, i32 0
  %19 = getelementptr inbounds %struct.od_entry, ptr %18, i32 0, i32 0
  %20 = load i16, ptr %19, align 8
  %21 = zext i16 %20 to i64
  %22 = inttoptr i64 %21 to ptr
  %23 = load ptr, ptr %5, align 8
  %24 = call ptr @wmem_map_insert(ptr noundef %16, ptr noundef %22, ptr noundef %23)
  %25 = load ptr, ptr %5, align 8
  ret ptr %25
}

; Function Attrs: nounwind uwtable
define internal ptr @object_lookup(ptr noundef %0, i16 noundef zeroext %1) #0 {
  %3 = alloca ptr, align 8
  %4 = alloca ptr, align 8
  %5 = alloca i16, align 2
  store ptr %0, ptr %4, align 8
  store i16 %1, ptr %5, align 2
  %6 = load ptr, ptr %4, align 8
  %7 = icmp eq ptr %6, null
  br i1 %7, label %8, label %9

8:                                                ; preds = %2
  store ptr null, ptr %3, align 8
  br label %17

9:                                                ; preds = %2
  %10 = load ptr, ptr %4, align 8
  %11 = getelementptr inbounds %struct.profile, ptr %10, i32 0, i32 5
  %12 = load ptr, ptr %11, align 8
  %13 = load i16, ptr %5, align 2
  %14 = zext i16 %13 to i64
  %15 = inttoptr i64 %14 to ptr
  %16 = call ptr @wmem_map_lookup(ptr noundef %12, ptr noundef %15)
  store ptr %16, ptr %3, align 8
  br label %17

17:                                               ; preds = %9, %8
  %18 = load ptr, ptr %3, align 8
  ret ptr %18
}

; Function Attrs: nounwind uwtable
define hidden ptr @epl_profile_object_lookup_or_add(ptr noundef %0, i16 noundef zeroext %1) #0 {
  %3 = alloca ptr, align 8
  %4 = alloca i16, align 2
  %5 = alloca ptr, align 8
  store ptr %0, ptr %3, align 8
  store i16 %1, ptr %4, align 2
  %6 = load ptr, ptr %3, align 8
  %7 = load i16, ptr %4, align 2
  %8 = call ptr @object_lookup(ptr noundef %6, i16 noundef zeroext %7)
  store ptr %8, ptr %5, align 8
  %9 = load ptr, ptr %5, align 8
  %10 = icmp ne ptr %9, null
  br i1 %10, label %11, label %13

11:                                               ; preds = %2
  %12 = load ptr, ptr %5, align 8
  br label %17

13:                                               ; preds = %2
  %14 = load ptr, ptr %3, align 8
  %15 = load i16, ptr %4, align 2
  %16 = call ptr @epl_profile_object_add(ptr noundef %14, i16 noundef zeroext %15)
  br label %17

17:                                               ; preds = %13, %11
  %18 = phi ptr [ %12, %11 ], [ %16, %13 ]
  ret ptr %18
}