; Function Attrs: nounwind uwtable
define hidden ptr @epl_profile_object_lookup_or_add(ptr noundef readonly %0, i16 noundef zeroext %1) local_unnamed_addr #2 {
  %3 = icmp eq ptr %0, null
  br i1 %3, label %.object_lookup.exit.thread_crit_edge, label %object_lookup.exit

.object_lookup.exit.thread_crit_edge:             ; preds = %2
  %.pre = zext i16 %1 to i64
  %.pre7 = inttoptr i64 %.pre to ptr
  br label %object_lookup.exit.thread

object_lookup.exit:                               ; preds = %2
  %4 = getelementptr inbounds nuw i8, ptr %0, i64 40
  %5 = load ptr, ptr %4, align 8
  %6 = zext i16 %1 to i64
  %7 = inttoptr i64 %6 to ptr
  %8 = tail call ptr @wmem_map_lookup(ptr noundef %5, ptr noundef %7) #18
  %.not = icmp eq ptr %8, null
  br i1 %.not, label %object_lookup.exit.thread, label %15

object_lookup.exit.thread:                        ; preds = %.object_lookup.exit.thread_crit_edge, %object_lookup.exit
  %.pre-phi8 = phi ptr [ %.pre7, %.object_lookup.exit.thread_crit_edge ], [ %7, %object_lookup.exit ]
  %9 = getelementptr inbounds nuw i8, ptr %0, i64 48
  %10 = load ptr, ptr %9, align 8
  %11 = tail call noalias ptr @wmem_alloc0(ptr noundef %10, i64 noundef 96) #18
  store i16 %1, ptr %11, align 8
  %12 = getelementptr inbounds nuw i8, ptr %0, i64 40
  %13 = load ptr, ptr %12, align 8
  %14 = tail call ptr @wmem_map_insert(ptr noundef %13, ptr noundef %.pre-phi8, ptr noundef nonnull %11) #18
  br label %15

15:                                               ; preds = %object_lookup.exit, %object_lookup.exit.thread
  %16 = phi ptr [ %11, %object_lookup.exit.thread ], [ %8, %object_lookup.exit ]
  ret ptr %16
}